; Function Attrs: mustprogress nofree norecurse nosync nounwind willreturn memory(readwrite, inaccessiblemem: none) uwtable
define void @_ZN10open_spiel9gin_rummy13GinRummyState13StockToUpcardEl(ptr nocapture noundef nonnull align 8 dereferenceable(528) %0, i64 noundef %1) local_unnamed_addr #8 align 2 personality ptr @__gxx_personality_v0 {
  %3 = getelementptr inbounds nuw i8, ptr %0, i64 232
  %4 = load i8, ptr %3, align 8
  %5 = trunc i8 %4 to i1
  br i1 %5, label %_ZN4absl7debian28optionalIiEaSIRlvEERS2_OT_.exit, label %6

6:                                                ; preds = %2
  store i8 1, ptr %3, align 8
  br label %_ZN4absl7debian28optionalIiEaSIRlvEERS2_OT_.exit

_ZN4absl7debian28optionalIiEaSIRlvEERS2_OT_.exit: ; preds = %2, %6
  %.sink.i.i = trunc i64 %1 to i32
  %7 = getelementptr inbounds i8, ptr %0, i64 236
  store i32 %.sink.i.i, ptr %7, align 4
  %8 = getelementptr inbounds nuw i8, ptr %0, i64 288
  %9 = load ptr, ptr %8, align 8
  %10 = sdiv i64 %1, 64
  %11 = getelementptr inbounds i64, ptr %9, i64 %10
  %12 = and i64 %1, -9223372036854775745
  %13 = icmp ugt i64 %12, -9223372036854775808
  %storemerge.idx.i.i.i.i.i = select i1 %13, i64 -8, i64 0
  %storemerge.i.i.i.i.i = getelementptr inbounds i8, ptr %11, i64 %storemerge.idx.i.i.i.i.i
  %14 = and i64 %1, 63
  %15 = shl nuw i64 1, %14
  %16 = xor i64 %15, -1
  %17 = load i64, ptr %storemerge.i.i.i.i.i, align 8
  %18 = and i64 %17, %16
  store i64 %18, ptr %storemerge.i.i.i.i.i, align 8
  %19 = getelementptr inbounds nuw i8, ptr %0, i64 248
  %20 = load i32, ptr %19, align 8
  %21 = add nsw i32 %20, -1
  store i32 %21, ptr %19, align 8
  ret void
}